; Function Attrs: mustprogress nounwind uwtable
define internal fastcc noundef i32 @"_ZZN12_GLOBAL__N_122TGlslangToSpvTraverser10visitUnaryEN7glslang6TVisitEPNS1_12TIntermUnaryEENK3$_1clEv"(ptr noundef nonnull readonly align 8 captures(none) dereferenceable(24) %0) unnamed_addr #3 align 2 {
  %2 = load ptr, ptr %0, align 8
  %3 = load i32, ptr %2, align 4
  %.not = icmp eq i32 %3, 0
  br i1 %.not, label %4, label %15

4:                                                ; preds = %1
  %5 = getelementptr inbounds nuw i8, ptr %0, i64 16
  %6 = load ptr, ptr %5, align 8
  %7 = getelementptr inbounds nuw i8, ptr %0, i64 8
  %8 = load ptr, ptr %7, align 8
  %9 = load ptr, ptr %8, align 8
  %10 = load ptr, ptr %9, align 8
  %11 = getelementptr inbounds nuw i8, ptr %10, i64 240
  %12 = load ptr, ptr %11, align 8
  %13 = tail call noundef nonnull align 8 dereferenceable(152) ptr %12(ptr noundef nonnull align 8 dereferenceable(184) %9) #20
  %14 = tail call fastcc noundef i32 @_ZN12_GLOBAL__N_122TGlslangToSpvTraverser23convertGlslangToSpvTypeERKN7glslang5TTypeEb(ptr noundef nonnull align 8 dereferenceable(3528) %6, ptr noundef nonnull align 8 dereferenceable(152) %13)
  br label %15

15:                                               ; preds = %1, %4
  %16 = phi i32 [ %14, %4 ], [ %3, %1 ]
  ret i32 %16
}